target datalayout = "e-m:e-p270:32:32-p271:32:32-p272:64:64-i64:64-i128:128-f80:128-n8:16:32:64-S128"
target triple = "x86_64-pc-linux-gnu"

%struct.CVodeMemRec = type { double, ptr, ptr, i32, i32, i32, double, double, ptr, i32, ptr, ptr, i32, ptr, i32, i32, double, double, ptr, i32, i32, i32, ptr, ptr, ptr, i32, i32, ptr, ptr, ptr, i32, double, i32, i32, double, ptr, ptr, i32, ptr, ptr, i32, i32, i32, double, ptr, ptr, [13 x ptr], ptr, ptr, ptr, ptr, ptr, [13 x ptr], ptr, ptr, ptr, ptr, [13 x ptr], ptr, ptr, ptr, ptr, ptr, i32, [13 x ptr], ptr, ptr, ptr, ptr, ptr, i32, double, i32, i32, i32, i32, i32, double, double, double, double, double, double, double, double, [14 x double], [6 x double], [13 x double], double, double, double, double, double, double, double, double, double, double, double, i32, ptr, i32, i64, i32, i32, i32, i32, i32, double, double, double, i64, i64, i64, i64, i64, i64, i64, i64, i64, ptr, i64, i64, ptr, i64, i64, i64, i64, i64, i64, i32, i64, i64, i64, i64, i64, i64, double, double, double, ptr, ptr, ptr, ptr, ptr, i32, i32, i64, double, double, double, i32, double, i32, i32, i32, i32, i32, i32, i32, i32, i32, i32, i32, i32, i32, i32, i32, i32, ptr, ptr, ptr, i32, [6 x [4 x double]], i32, i64, ptr, i32, ptr, ptr, double, double, double, ptr, ptr, ptr, double, double, i32, i32, i64, ptr, i32, i32, ptr, i32 }

@.str = private unnamed_addr constant [7 x i8] c"CVODES\00", align 1
@.str.2 = private unnamed_addr constant [26 x i8] c"cvode_mem = NULL illegal.\00", align 1
@.str.43 = private unnamed_addr constant [20 x i8] c"CVodeGetNumRhsEvals\00", align 1

; Function Attrs: nounwind uwtable
define i32 @CVodeGetNumRhsEvals(ptr noundef %0, ptr noundef %1) #0 {
  %3 = alloca i32, align 4
  %4 = alloca ptr, align 8
  %5 = alloca ptr, align 8
  %6 = alloca ptr, align 8
  %7 = alloca i32, align 4
  store ptr %0, ptr %4, align 8, !tbaa !3
  store ptr %1, ptr %5, align 8, !tbaa !72
  call void @llvm.lifetime.start.p0(i64 8, ptr %6) #5
  %8 = load ptr, ptr %4, align 8, !tbaa !3
  %9 = icmp eq ptr %8, null
  br i1 %9, label %10, label %11

10:                                               ; preds = %2
  call void (ptr, i32, ptr, ptr, ptr, ...) @cvProcessError(ptr noundef null, i32 noundef -21, ptr noundef @.str, ptr noundef @.str.43, ptr noundef @.str.2)
  store i32 -21, ptr %3, align 4
  store i32 1, ptr %7, align 4
  br label %17

11:                                               ; preds = %2
  %12 = load ptr, ptr %4, align 8, !tbaa !3
  store ptr %12, ptr %6, align 8, !tbaa !7
  %13 = load ptr, ptr %6, align 8, !tbaa !7
  %14 = getelementptr inbounds nuw %struct.CVodeMemRec, ptr %13, i32 0, i32 112
  %15 = load i64, ptr %14, align 8, !tbaa !73
  %16 = load ptr, ptr %5, align 8, !tbaa !72
  store i64 %15, ptr %16, align 8, !tbaa !31
  store i32 0, ptr %3, align 4
  store i32 1, ptr %7, align 4
  br label %17

17:                                               ; preds = %11, %10
  call void @llvm.lifetime.end.p0(i64 8, ptr %6) #5
  %18 = load i32, ptr %3, align 4
  ret i32 %18
}